target datalayout = "e-m:e-p270:32:32-p271:32:32-p272:64:64-i64:64-i128:128-f80:128-n8:16:32:64-S128"
target triple = "x86_64-pc-linux-gnu"

%"class.bParse::bFile" = type <{ ptr, [7 x i8], i8, ptr, i32, i32, %class.b3HashMap, i32, [4 x i8], ptr, ptr, %class.b3AlignedObjectArray.4, %class.b3AlignedObjectArray.4, %class.b3AlignedObjectArray.6, %class.b3HashMap.8, %class.b3HashMap, i32, [4 x i8] }>
%class.b3AlignedObjectArray.4 = type <{ [4 x i8], i32, i32, [4 x i8], ptr, i8, [7 x i8] }>
%class.b3AlignedObjectArray.6 = type <{ [4 x i8], i32, i32, [4 x i8], ptr, i8, [7 x i8] }>
%class.b3HashMap.8 = type { %class.b3AlignedObjectArray, %class.b3AlignedObjectArray, %class.b3AlignedObjectArray.6, %class.b3AlignedObjectArray.2 }
%class.b3AlignedObjectArray = type <{ [4 x i8], i32, i32, [4 x i8], ptr, i8, [7 x i8] }>
%class.b3AlignedObjectArray.2 = type <{ [4 x i8], i32, i32, [4 x i8], ptr, i8, [7 x i8] }>
%class.b3HashMap = type { %class.b3AlignedObjectArray, %class.b3AlignedObjectArray, %class.b3AlignedObjectArray.0, %class.b3AlignedObjectArray.2 }
%class.b3AlignedObjectArray.0 = type <{ [4 x i8], i32, i32, [4 x i8], ptr, i8, [7 x i8] }>

; Function Attrs: mustprogress uwtable
define dso_local void @_ZN6bParse5bFile8swapDataEPcsib(ptr noundef nonnull align 8 dereferenceable(540) %0, ptr noundef %1, i16 noundef signext %2, i32 noundef %3, i1 noundef zeroext %4) #0 align 2 {
  %6 = alloca ptr, align 8
  %7 = alloca ptr, align 8
  %8 = alloca i16, align 2
  %9 = alloca i32, align 4
  %10 = alloca i8, align 1
  %11 = alloca ptr, align 8
  %12 = alloca i32, align 4
  %13 = alloca i8, align 1
  %14 = alloca ptr, align 8
  %15 = alloca i32, align 4
  store ptr %0, ptr %6, align 8, !tbaa !16
  store ptr %1, ptr %7, align 8, !tbaa !4
  store i16 %2, ptr %8, align 2, !tbaa !82
  store i32 %3, ptr %9, align 4, !tbaa !9
  %16 = zext i1 %4 to i8
  store i8 %16, ptr %10, align 1, !tbaa !67
  %17 = load ptr, ptr %6, align 8
  %18 = load i8, ptr %10, align 1, !tbaa !67, !range !59, !noundef !60
  %19 = trunc i8 %18 to i1
  br i1 %19, label %25, label %20

20:                                               ; preds = %5
  %21 = getelementptr inbounds nuw %"class.bParse::bFile", ptr %17, i32 0, i32 16
  %22 = load i32, ptr %21, align 8, !tbaa !46
  %23 = and i32 %22, 4
  %24 = icmp ne i32 %23, 0
  br i1 %24, label %25, label %98

25:                                               ; preds = %20, %5
  %26 = load i16, ptr %8, align 2, !tbaa !82
  %27 = sext i16 %26 to i32
  %28 = icmp eq i32 %27, 2
  br i1 %28, label %33, label %29

29:                                               ; preds = %25
  %30 = load i16, ptr %8, align 2, !tbaa !82
  %31 = sext i16 %30 to i32
  %32 = icmp eq i32 %31, 3
  br i1 %32, label %33, label %53

33:                                               ; preds = %29, %25
  call void @llvm.lifetime.start.p0(i64 8, ptr %11) #16
  %34 = load ptr, ptr %7, align 8, !tbaa !4
  store ptr %34, ptr %11, align 8, !tbaa !80
  call void @llvm.lifetime.start.p0(i64 4, ptr %12) #16
  store i32 0, ptr %12, align 4, !tbaa !9
  br label %35

35:                                               ; preds = %49, %33
  %36 = load i32, ptr %12, align 4, !tbaa !9
  %37 = load i32, ptr %9, align 4, !tbaa !9
  %38 = icmp slt i32 %36, %37
  br i1 %38, label %40, label %39

39:                                               ; preds = %35
  call void @llvm.lifetime.end.p0(i64 4, ptr %12) #16
  br label %52

40:                                               ; preds = %35
  %41 = load ptr, ptr %11, align 8, !tbaa !80
  %42 = getelementptr inbounds i16, ptr %41, i64 0
  %43 = load i16, ptr %42, align 2, !tbaa !82
  %44 = call noundef signext i16 @_ZN6bParse10ChunkUtils9swapShortEs(i16 noundef signext %43)
  %45 = load ptr, ptr %11, align 8, !tbaa !80
  %46 = getelementptr inbounds i16, ptr %45, i64 0
  store i16 %44, ptr %46, align 2, !tbaa !82
  %47 = load ptr, ptr %11, align 8, !tbaa !80
  %48 = getelementptr inbounds nuw i16, ptr %47, i32 1
  store ptr %48, ptr %11, align 8, !tbaa !80
  br label %49

49:                                               ; preds = %40
  %50 = load i32, ptr %12, align 4, !tbaa !9
  %51 = add nsw i32 %50, 1
  store i32 %51, ptr %12, align 4, !tbaa !9
  br label %35, !llvm.loop !141

52:                                               ; preds = %39
  call void @llvm.lifetime.end.p0(i64 8, ptr %11) #16
  br label %53

53:                                               ; preds = %52, %29
  %54 = load i16, ptr %8, align 2, !tbaa !82
  %55 = sext i16 %54 to i32
  %56 = icmp sgt i32 %55, 3
  br i1 %56, label %57, label %97

57:                                               ; preds = %53
  %58 = load i16, ptr %8, align 2, !tbaa !82
  %59 = sext i16 %58 to i32
  %60 = icmp slt i32 %59, 8
  br i1 %60, label %61, label %97

61:                                               ; preds = %57
  call void @llvm.lifetime.start.p0(i64 1, ptr %13) #16
  call void @llvm.lifetime.start.p0(i64 8, ptr %14) #16
  %62 = load ptr, ptr %7, align 8, !tbaa !4
  store ptr %62, ptr %14, align 8, !tbaa !4
  call void @llvm.lifetime.start.p0(i64 4, ptr %15) #16
  store i32 0, ptr %15, align 4, !tbaa !9
  br label %63

63:                                               ; preds = %93, %61
  %64 = load i32, ptr %15, align 4, !tbaa !9
  %65 = load i32, ptr %9, align 4, !tbaa !9
  %66 = icmp slt i32 %64, %65
  br i1 %66, label %68, label %67

67:                                               ; preds = %63
  call void @llvm.lifetime.end.p0(i64 4, ptr %15) #16
  br label %96

68:                                               ; preds = %63
  %69 = load ptr, ptr %14, align 8, !tbaa !4
  %70 = getelementptr inbounds i8, ptr %69, i64 0
  %71 = load i8, ptr %70, align 1, !tbaa !11
  store i8 %71, ptr %13, align 1, !tbaa !11
  %72 = load ptr, ptr %14, align 8, !tbaa !4
  %73 = getelementptr inbounds i8, ptr %72, i64 3
  %74 = load i8, ptr %73, align 1, !tbaa !11
  %75 = load ptr, ptr %14, align 8, !tbaa !4
  %76 = getelementptr inbounds i8, ptr %75, i64 0
  store i8 %74, ptr %76, align 1, !tbaa !11
  %77 = load i8, ptr %13, align 1, !tbaa !11
  %78 = load ptr, ptr %14, align 8, !tbaa !4
  %79 = getelementptr inbounds i8, ptr %78, i64 3
  store i8 %77, ptr %79, align 1, !tbaa !11
  %80 = load ptr, ptr %14, align 8, !tbaa !4
  %81 = getelementptr inbounds i8, ptr %80, i64 1
  %82 = load i8, ptr %81, align 1, !tbaa !11
  store i8 %82, ptr %13, align 1, !tbaa !11
  %83 = load ptr, ptr %14, align 8, !tbaa !4
  %84 = getelementptr inbounds i8, ptr %83, i64 2
  %85 = load i8, ptr %84, align 1, !tbaa !11
  %86 = load ptr, ptr %14, align 8, !tbaa !4
  %87 = getelementptr inbounds i8, ptr %86, i64 1
  store i8 %85, ptr %87, align 1, !tbaa !11
  %88 = load i8, ptr %13, align 1, !tbaa !11
  %89 = load ptr, ptr %14, align 8, !tbaa !4
  %90 = getelementptr inbounds i8, ptr %89, i64 2
  store i8 %88, ptr %90, align 1, !tbaa !11
  %91 = load ptr, ptr %14, align 8, !tbaa !4
  %92 = getelementptr inbounds i8, ptr %91, i64 4
  store ptr %92, ptr %14, align 8, !tbaa !4
  br label %93

93:                                               ; preds = %68
  %94 = load i32, ptr %15, align 4, !tbaa !9
  %95 = add nsw i32 %94, 1
  store i32 %95, ptr %15, align 4, !tbaa !9
  br label %63, !llvm.loop !142

96:                                               ; preds = %67
  call void @llvm.lifetime.end.p0(i64 8, ptr %14) #16
  call void @llvm.lifetime.end.p0(i64 1, ptr %13) #16
  br label %97

97:                                               ; preds = %96, %57, %53
  br label %98

98:                                               ; preds = %97, %20
  ret void
}