; Function Attrs: mustprogress uwtable
define dso_local void @_ZN6bParse5bFile8swapDataEPcsib(ptr noundef nonnull readonly align 8 captures(none) dereferenceable(540) %0, ptr noundef captures(none) %1, i16 noundef signext %2, i32 noundef %3, i1 noundef zeroext %4) local_unnamed_addr #3 align 2 {
  br i1 %4, label %10, label %6

6:                                                ; preds = %5
  %7 = getelementptr inbounds nuw i8, ptr %0, i64 536
  %8 = load i32, ptr %7, align 8, !tbaa !56
  %9 = and i32 %8, 4
  %.not = icmp eq i32 %9, 0
  br i1 %.not, label %.loopexit, label %10

10:                                               ; preds = %6, %5
  %11 = and i16 %2, -2
  %or.cond = icmp eq i16 %11, 2
  %12 = icmp sgt i32 %3, 0
  %or.cond42 = and i1 %or.cond, %12
  br i1 %or.cond42, label %.lr.ph, label %.loopexit36

.lr.ph:                                           ; preds = %10, %.lr.ph
  %.03338 = phi ptr [ %15, %.lr.ph ], [ %1, %10 ]
  %.03437 = phi i32 [ %16, %.lr.ph ], [ 0, %10 ]
  %13 = load i16, ptr %.03338, align 2, !tbaa !81
  %14 = tail call noundef signext i16 @_ZN6bParse10ChunkUtils9swapShortEs(i16 noundef signext %13)
  store i16 %14, ptr %.03338, align 2, !tbaa !81
  %15 = getelementptr inbounds nuw i8, ptr %.03338, i64 2
  %16 = add nuw nsw i32 %.03437, 1
  %exitcond.not = icmp eq i32 %16, %3
  br i1 %exitcond.not, label %.loopexit36, label %.lr.ph, !llvm.loop !109

.loopexit36:                                      ; preds = %.lr.ph, %10
  %17 = and i16 %2, -4
  %or.cond5 = icmp eq i16 %17, 4
  %or.cond43 = and i1 %or.cond5, %12
  br i1 %or.cond43, label %.lr.ph41, label %.loopexit

.lr.ph41:                                         ; preds = %.loopexit36, %.lr.ph41
  %.040 = phi i32 [ %26, %.lr.ph41 ], [ 0, %.loopexit36 ]
  %.03239 = phi ptr [ %25, %.lr.ph41 ], [ %1, %.loopexit36 ]
  %18 = load i8, ptr %.03239, align 1, !tbaa !4
  %19 = getelementptr inbounds nuw i8, ptr %.03239, i64 3
  %20 = load i8, ptr %19, align 1, !tbaa !4
  store i8 %20, ptr %.03239, align 1, !tbaa !4
  store i8 %18, ptr %19, align 1, !tbaa !4
  %21 = getelementptr inbounds nuw i8, ptr %.03239, i64 1
  %22 = load i8, ptr %21, align 1, !tbaa !4
  %23 = getelementptr inbounds nuw i8, ptr %.03239, i64 2
  %24 = load i8, ptr %23, align 1, !tbaa !4
  store i8 %24, ptr %21, align 1, !tbaa !4
  store i8 %22, ptr %23, align 1, !tbaa !4
  %25 = getelementptr inbounds nuw i8, ptr %.03239, i64 4
  %26 = add nuw nsw i32 %.040, 1
  %exitcond44.not = icmp eq i32 %26, %3
  br i1 %exitcond44.not, label %.loopexit, label %.lr.ph41, !llvm.loop !110

.loopexit:                                        ; preds = %.lr.ph41, %.loopexit36, %6
  ret void
}